; Function Attrs: mustprogress nofree norecurse nounwind willreturn memory(readwrite, inaccessiblemem: none) uwtable
define hidden void @_PyInterpreterState_ReinitRunningMain(ptr noundef readonly %0) local_unnamed_addr #9 {
  %2 = getelementptr inbounds nuw i8, ptr %0, i64 16
  %3 = load ptr, ptr %2, align 8, !tbaa !221
  %4 = getelementptr inbounds nuw i8, ptr %3, i64 7352
  %5 = load atomic i64, ptr %4 monotonic, align 8
  %6 = inttoptr i64 %5 to ptr
  %.not = icmp eq ptr %0, %6
  br i1 %.not, label %8, label %7

7:                                                ; preds = %1
  store atomic i64 0, ptr %4 monotonic, align 8
  br label %8

8:                                                ; preds = %7, %1
  ret void
}